; Function Attrs: mustprogress nounwind willreturn uwtable
define dso_local void @_Z26cmFortran_yy_delete_bufferP15yy_buffer_statePv(ptr noundef %0, ptr noundef readonly captures(none) %1) local_unnamed_addr #8 {
  %.not = icmp eq ptr %0, null
  br i1 %.not, label %19, label %3

3:                                                ; preds = %2
  %4 = getelementptr inbounds nuw i8, ptr %1, i64 40
  %5 = load ptr, ptr %4, align 8, !tbaa !20
  %.not14 = icmp eq ptr %5, null
  br i1 %.not14, label %.thread, label %6

6:                                                ; preds = %3
  %7 = getelementptr inbounds nuw i8, ptr %1, i64 24
  %8 = load i64, ptr %7, align 8, !tbaa !21
  %9 = getelementptr inbounds nuw ptr, ptr %5, i64 %8
  %10 = load ptr, ptr %9, align 8, !tbaa !22
  %11 = icmp eq ptr %0, %10
  br i1 %11, label %12, label %.thread

12:                                               ; preds = %6
  store ptr null, ptr %9, align 8, !tbaa !22
  br label %.thread

.thread:                                          ; preds = %3, %12, %6
  %13 = getelementptr inbounds nuw i8, ptr %0, i64 32
  %14 = load i32, ptr %13, align 8, !tbaa !28
  %.not15 = icmp eq i32 %14, 0
  br i1 %.not15, label %18, label %15

15:                                               ; preds = %.thread
  %16 = getelementptr inbounds nuw i8, ptr %0, i64 8
  %17 = load ptr, ptr %16, align 8, !tbaa !27
  tail call void @free(ptr noundef %17) #29
  br label %18

18:                                               ; preds = %15, %.thread
  tail call void @free(ptr noundef nonnull %0) #29
  br label %19

19:                                               ; preds = %2, %18
  ret void
}